target datalayout = "e-m:e-p270:32:32-p271:32:32-p272:64:64-i64:64-i128:128-f80:128-n8:16:32:64-S128"
target triple = "x86_64-pc-linux-gnu"

%struct._lv_arc_t = type { %struct._lv_obj_t, i32, float, float, float, float, i32, i32, i32, i8, i32, i32, float, i16 }
%struct._lv_obj_t = type { ptr, ptr, ptr, ptr, ptr, %struct.lv_area_t, i32, i16, i16 }
%struct.lv_area_t = type { i32, i32, i32, i32 }

; Function Attrs: nounwind uwtable
define void @lv_arc_set_rotation(ptr noundef %0, i32 noundef %1) #0 {
  %3 = alloca ptr, align 8
  %4 = alloca i32, align 4
  %5 = alloca ptr, align 8
  store ptr %0, ptr %3, align 8, !tbaa !8
  store i32 %1, ptr %4, align 4, !tbaa !33
  br label %6

6:                                                ; preds = %2
  %7 = load ptr, ptr %3, align 8, !tbaa !8
  %8 = icmp ne ptr %7, null
  br i1 %8, label %13, label %9

9:                                                ; preds = %6
  br label %10

10:                                               ; preds = %9
  br label %11

11:                                               ; preds = %10
  br label %12

12:                                               ; preds = %11, %12
  br label %12

13:                                               ; preds = %6
  br label %14

14:                                               ; preds = %13
  call void @llvm.lifetime.start.p0(i64 8, ptr %5) #5
  %15 = load ptr, ptr %3, align 8, !tbaa !8
  store ptr %15, ptr %5, align 8, !tbaa !10
  br label %16

16:                                               ; preds = %19, %14
  %17 = load i32, ptr %4, align 4, !tbaa !33
  %18 = icmp slt i32 %17, 0
  br i1 %18, label %19, label %22

19:                                               ; preds = %16
  %20 = load i32, ptr %4, align 4, !tbaa !33
  %21 = add nsw i32 %20, 360
  store i32 %21, ptr %4, align 4, !tbaa !33
  br label %16, !llvm.loop !65

22:                                               ; preds = %16
  br label %23

23:                                               ; preds = %26, %22
  %24 = load i32, ptr %4, align 4, !tbaa !33
  %25 = icmp sge i32 %24, 360
  br i1 %25, label %26, label %29

26:                                               ; preds = %23
  %27 = load i32, ptr %4, align 4, !tbaa !33
  %28 = sub nsw i32 %27, 360
  store i32 %28, ptr %4, align 4, !tbaa !33
  br label %23, !llvm.loop !66

29:                                               ; preds = %23
  %30 = load i32, ptr %4, align 4, !tbaa !33
  %31 = load ptr, ptr %5, align 8, !tbaa !10
  %32 = getelementptr inbounds nuw %struct._lv_arc_t, ptr %31, i32 0, i32 1
  store i32 %30, ptr %32, align 8, !tbaa !12
  %33 = load ptr, ptr %3, align 8, !tbaa !8
  call void @lv_obj_invalidate(ptr noundef %33)
  call void @llvm.lifetime.end.p0(i64 8, ptr %5) #5
  ret void
}