; Function Attrs: nounwind uwtable
define void @lv_arc_set_rotation(ptr noundef %0, i32 noundef %1) local_unnamed_addr #0 {
  %.not = icmp eq ptr %0, null
  br i1 %.not, label %.preheader, label %.preheader10.preheader

.preheader10.preheader:                           ; preds = %2
  %smax = tail call i32 @llvm.smax.i32(i32 %1, i32 0)
  %.lobit = lshr i32 %1, 31
  %3 = add i32 %1, %.lobit
  %4 = sub i32 %smax, %3
  %5 = udiv i32 %4, 360
  %6 = add nuw nsw i32 %.lobit, %5
  %7 = mul i32 %6, 360
  %8 = add i32 %1, %7
  %9 = tail call i32 @llvm.smax.i32(i32 %8, i32 359)
  %10 = urem i32 %9, 360
  %.neg = sub nsw i32 %10, %9
  %11 = add i32 %.neg, %8
  %12 = getelementptr inbounds nuw i8, ptr %0, i64 64
  store i32 %11, ptr %12, align 8, !tbaa !3
  tail call void @lv_obj_invalidate(ptr noundef nonnull %0) #7
  ret void

.preheader:                                       ; preds = %2, %.preheader
  br label %.preheader
}